target datalayout = "e-m:e-p270:32:32-p271:32:32-p272:64:64-i64:64-i128:128-f80:128-n8:16:32:64-S128"
target triple = "x86_64-pc-linux-gnu"

%struct.anon = type { ptr, ptr, i64 }

@.str.14 = private unnamed_addr constant [7 x i8] c"actual\00", align 1
@.str.15 = private unnamed_addr constant [10 x i8] c"reference\00", align 1
@.str.16 = private unnamed_addr constant [63 x i8] c"Sizes of memory blocks must be equal (actual=%lu expected=%lu)\00", align 1
@.str.17 = private unnamed_addr constant [36 x i8] c"Memory blocks contain the same data\00", align 1
@.str.18 = private unnamed_addr constant [3 x i8] c"%s\00", align 1
@.str.19 = private unnamed_addr constant [7 x i8] c"%016lx\00", align 1
@.str.20 = private unnamed_addr constant [6 x i8] c" %02x\00", align 1
@.str.21 = private unnamed_addr constant [4 x i8] c"   \00", align 1
@.str.22 = private unnamed_addr constant [2 x i8] c" \00", align 1
@.str.23 = private unnamed_addr constant [3 x i8] c"%c\00", align 1
@.str.24 = private unnamed_addr constant [3 x i8] c" |\00", align 1

; Function Attrs: nounwind uwtable
define dso_local i32 @SDLTest_CompareMemory(ptr noundef %0, i64 noundef %1, ptr noundef %2, i64 noundef %3) #0 {
  %5 = alloca i32, align 4
  %6 = alloca ptr, align 8
  %7 = alloca i64, align 8
  %8 = alloca ptr, align 8
  %9 = alloca i64, align 8
  %10 = alloca i64, align 8
  %11 = alloca i64, align 8
  %12 = alloca [2 x %struct.anon], align 16
  %13 = alloca [149 x i8], align 16
  %14 = alloca i32, align 4
  %15 = alloca i32, align 4
  %16 = alloca i64, align 8
  %17 = alloca i64, align 8
  %18 = alloca i64, align 8
  %19 = alloca i8, align 1
  store ptr %0, ptr %6, align 8
  store i64 %1, ptr %7, align 8
  store ptr %2, ptr %8, align 8
  store i64 %3, ptr %9, align 8
  call void @llvm.lifetime.start.p0(i64 8, ptr %10) #5
  %20 = load i64, ptr %7, align 8
  %21 = load i64, ptr %9, align 8
  %22 = icmp ugt i64 %20, %21
  br i1 %22, label %23, label %25

23:                                               ; preds = %4
  %24 = load i64, ptr %7, align 8
  br label %27

25:                                               ; preds = %4
  %26 = load i64, ptr %9, align 8
  br label %27

27:                                               ; preds = %25, %23
  %28 = phi i64 [ %24, %23 ], [ %26, %25 ]
  store i64 %28, ptr %10, align 8
  call void @llvm.lifetime.start.p0(i64 8, ptr %11) #5
  call void @llvm.lifetime.start.p0(i64 48, ptr %12) #5
  %29 = getelementptr inbounds nuw %struct.anon, ptr %12, i32 0, i32 0
  store ptr @.str.14, ptr %29, align 8
  %30 = getelementptr inbounds nuw %struct.anon, ptr %12, i32 0, i32 1
  %31 = load ptr, ptr %6, align 8
  store ptr %31, ptr %30, align 8
  %32 = getelementptr inbounds nuw %struct.anon, ptr %12, i32 0, i32 2
  %33 = load i64, ptr %7, align 8
  store i64 %33, ptr %32, align 8
  %34 = getelementptr inbounds %struct.anon, ptr %12, i64 1
  %35 = getelementptr inbounds nuw %struct.anon, ptr %34, i32 0, i32 0
  store ptr @.str.15, ptr %35, align 8
  %36 = getelementptr inbounds nuw %struct.anon, ptr %34, i32 0, i32 1
  %37 = load ptr, ptr %8, align 8
  store ptr %37, ptr %36, align 8
  %38 = getelementptr inbounds nuw %struct.anon, ptr %34, i32 0, i32 2
  %39 = load i64, ptr %9, align 8
  store i64 %39, ptr %38, align 8
  call void @llvm.lifetime.start.p0(i64 149, ptr %13) #5
  %40 = load i64, ptr %7, align 8
  %41 = load i64, ptr %9, align 8
  %42 = icmp eq i64 %40, %41
  %43 = zext i1 %42 to i32
  %44 = load i64, ptr %7, align 8
  %45 = load i64, ptr %9, align 8
  %46 = call i32 (i32, ptr, ...) @SDLTest_AssertCheck(i32 noundef %43, ptr noundef @.str.16, i64 noundef %44, i64 noundef %45)
  %47 = load i64, ptr %7, align 8
  %48 = load i64, ptr %9, align 8
  %49 = icmp eq i64 %47, %48
  br i1 %49, label %50, label %66

50:                                               ; preds = %27
  call void @llvm.lifetime.start.p0(i64 4, ptr %14) #5
  %51 = load ptr, ptr %6, align 8
  %52 = load ptr, ptr %8, align 8
  %53 = load i64, ptr %10, align 8
  %54 = call i32 @SDL_memcmp(ptr noundef %51, ptr noundef %52, i64 noundef %53)
  %55 = icmp eq i32 %54, 0
  %56 = zext i1 %55 to i32
  store i32 %56, ptr %14, align 4
  %57 = load i32, ptr %14, align 4
  %58 = call i32 (i32, ptr, ...) @SDLTest_AssertCheck(i32 noundef %57, ptr noundef @.str.17)
  %59 = load i32, ptr %14, align 4
  %60 = icmp ne i32 %59, 0
  br i1 %60, label %61, label %62

61:                                               ; preds = %50
  store i32 0, ptr %5, align 4
  store i32 1, ptr %15, align 4
  br label %63

62:                                               ; preds = %50
  store i32 0, ptr %15, align 4
  br label %63

63:                                               ; preds = %62, %61
  call void @llvm.lifetime.end.p0(i64 4, ptr %14) #5
  %64 = load i32, ptr %15, align 4
  switch i32 %64, label %235 [
    i32 0, label %65
  ]

65:                                               ; preds = %63
  br label %66

66:                                               ; preds = %65, %27
  %67 = getelementptr inbounds [149 x i8], ptr %13, i64 0, i64 0
  call void @llvm.memset.p0.i64(ptr align 16 %67, i8 32, i64 149, i1 false)
  %68 = getelementptr inbounds nuw [149 x i8], ptr %13, i64 0, i64 148
  store i8 0, ptr %68, align 4
  store i64 0, ptr %11, align 8
  br label %69

69:                                               ; preds = %88, %66
  %70 = load i64, ptr %11, align 8
  %71 = icmp ult i64 %70, 2
  br i1 %71, label %72, label %91

72:                                               ; preds = %69
  %73 = getelementptr inbounds [149 x i8], ptr %13, i64 0, i64 0
  %74 = getelementptr inbounds i8, ptr %73, i64 16
  %75 = getelementptr inbounds i8, ptr %74, i64 1
  %76 = load i64, ptr %11, align 8
  %77 = mul i64 %76, 67
  %78 = getelementptr inbounds nuw i8, ptr %75, i64 %77
  %79 = load i64, ptr %11, align 8
  %80 = getelementptr inbounds nuw [2 x %struct.anon], ptr %12, i64 0, i64 %79
  %81 = getelementptr inbounds nuw %struct.anon, ptr %80, i32 0, i32 0
  %82 = load ptr, ptr %81, align 8
  %83 = load i64, ptr %11, align 8
  %84 = getelementptr inbounds nuw [2 x %struct.anon], ptr %12, i64 0, i64 %83
  %85 = getelementptr inbounds nuw %struct.anon, ptr %84, i32 0, i32 0
  %86 = load ptr, ptr %85, align 8
  %87 = call i64 @SDL_strlen(ptr noundef %86)
  call void @llvm.memcpy.p0.p0.i64(ptr align 1 %78, ptr align 1 %82, i64 %87, i1 false)
  br label %88

88:                                               ; preds = %72
  %89 = load i64, ptr %11, align 8
  %90 = add i64 %89, 1
  store i64 %90, ptr %11, align 8
  br label %69, !llvm.loop !7

91:                                               ; preds = %69
  %92 = getelementptr inbounds [149 x i8], ptr %13, i64 0, i64 0
  call void (ptr, ...) @SDLTest_LogError(ptr noundef @.str.18, ptr noundef %92)
  store i64 0, ptr %11, align 8
  br label %93

93:                                               ; preds = %231, %91
  %94 = load i64, ptr %11, align 8
  %95 = load i64, ptr %10, align 8
  %96 = icmp ult i64 %94, %95
  br i1 %96, label %97, label %234

97:                                               ; preds = %93
  call void @llvm.lifetime.start.p0(i64 8, ptr %16) #5
  store i64 0, ptr %16, align 8
  call void @llvm.lifetime.start.p0(i64 8, ptr %17) #5
  %98 = getelementptr inbounds [149 x i8], ptr %13, i64 0, i64 0
  %99 = load i64, ptr %16, align 8
  %100 = getelementptr inbounds nuw i8, ptr %98, i64 %99
  %101 = load i64, ptr %16, align 8
  %102 = sub i64 149, %101
  %103 = load i64, ptr %11, align 8
  %104 = call i32 (ptr, i64, ptr, ...) @SDL_snprintf(ptr noundef %100, i64 noundef %102, ptr noundef @.str.19, i64 noundef %103)
  %105 = sext i32 %104 to i64
  %106 = load i64, ptr %16, align 8
  %107 = add i64 %106, %105
  store i64 %107, ptr %16, align 8
  store i64 0, ptr %17, align 8
  br label %108

108:                                              ; preds = %223, %97
  %109 = load i64, ptr %17, align 8
  %110 = icmp ult i64 %109, 2
  br i1 %110, label %111, label %226

111:                                              ; preds = %108
  call void @llvm.lifetime.start.p0(i64 8, ptr %18) #5
  store i64 0, ptr %18, align 8
  br label %112

112:                                              ; preds = %155, %111
  %113 = load i64, ptr %18, align 8
  %114 = icmp ult i64 %113, 16
  br i1 %114, label %115, label %158

115:                                              ; preds = %112
  %116 = load i64, ptr %11, align 8
  %117 = load i64, ptr %18, align 8
  %118 = add i64 %116, %117
  %119 = load i64, ptr %17, align 8
  %120 = getelementptr inbounds nuw [2 x %struct.anon], ptr %12, i64 0, i64 %119
  %121 = getelementptr inbounds nuw %struct.anon, ptr %120, i32 0, i32 2
  %122 = load i64, ptr %121, align 8
  %123 = icmp ult i64 %118, %122
  br i1 %123, label %124, label %144

124:                                              ; preds = %115
  %125 = getelementptr inbounds [149 x i8], ptr %13, i64 0, i64 0
  %126 = load i64, ptr %16, align 8
  %127 = getelementptr inbounds nuw i8, ptr %125, i64 %126
  %128 = load i64, ptr %16, align 8
  %129 = sub i64 149, %128
  %130 = load i64, ptr %17, align 8
  %131 = getelementptr inbounds nuw [2 x %struct.anon], ptr %12, i64 0, i64 %130
  %132 = getelementptr inbounds nuw %struct.anon, ptr %131, i32 0, i32 1
  %133 = load ptr, ptr %132, align 8
  %134 = load i64, ptr %11, align 8
  %135 = load i64, ptr %18, align 8
  %136 = add i64 %134, %135
  %137 = getelementptr inbounds nuw i8, ptr %133, i64 %136
  %138 = load i8, ptr %137, align 1
  %139 = zext i8 %138 to i32
  %140 = call i32 (ptr, i64, ptr, ...) @SDL_snprintf(ptr noundef %127, i64 noundef %129, ptr noundef @.str.20, i32 noundef %139)
  %141 = sext i32 %140 to i64
  %142 = load i64, ptr %16, align 8
  %143 = add i64 %142, %141
  store i64 %143, ptr %16, align 8
  br label %154

144:                                              ; preds = %115
  %145 = getelementptr inbounds [149 x i8], ptr %13, i64 0, i64 0
  %146 = load i64, ptr %16, align 8
  %147 = getelementptr inbounds nuw i8, ptr %145, i64 %146
  %148 = load i64, ptr %16, align 8
  %149 = sub i64 149, %148
  %150 = call i32 (ptr, i64, ptr, ...) @SDL_snprintf(ptr noundef %147, i64 noundef %149, ptr noundef @.str.21)
  %151 = sext i32 %150 to i64
  %152 = load i64, ptr %16, align 8
  %153 = add i64 %152, %151
  store i64 %153, ptr %16, align 8
  br label %154

154:                                              ; preds = %144, %124
  br label %155

155:                                              ; preds = %154
  %156 = load i64, ptr %18, align 8
  %157 = add i64 %156, 1
  store i64 %157, ptr %18, align 8
  br label %112, !llvm.loop !8

158:                                              ; preds = %112
  %159 = getelementptr inbounds [149 x i8], ptr %13, i64 0, i64 0
  %160 = load i64, ptr %16, align 8
  %161 = getelementptr inbounds nuw i8, ptr %159, i64 %160
  %162 = load i64, ptr %16, align 8
  %163 = sub i64 149, %162
  %164 = call i32 (ptr, i64, ptr, ...) @SDL_snprintf(ptr noundef %161, i64 noundef %163, ptr noundef @.str.22)
  %165 = sext i32 %164 to i64
  %166 = load i64, ptr %16, align 8
  %167 = add i64 %166, %165
  store i64 %167, ptr %16, align 8
  store i64 0, ptr %18, align 8
  br label %168

168:                                              ; preds = %208, %158
  %169 = load i64, ptr %18, align 8
  %170 = icmp ult i64 %169, 16
  br i1 %170, label %171, label %211

171:                                              ; preds = %168
  call void @llvm.lifetime.start.p0(i64 1, ptr %19) #5
  store i8 32, ptr %19, align 1
  %172 = load i64, ptr %11, align 8
  %173 = load i64, ptr %18, align 8
  %174 = add i64 %172, %173
  %175 = load i64, ptr %17, align 8
  %176 = getelementptr inbounds nuw [2 x %struct.anon], ptr %12, i64 0, i64 %175
  %177 = getelementptr inbounds nuw %struct.anon, ptr %176, i32 0, i32 2
  %178 = load i64, ptr %177, align 8
  %179 = icmp ult i64 %174, %178
  br i1 %179, label %180, label %196

180:                                              ; preds = %171
  %181 = load i64, ptr %17, align 8
  %182 = getelementptr inbounds nuw [2 x %struct.anon], ptr %12, i64 0, i64 %181
  %183 = getelementptr inbounds nuw %struct.anon, ptr %182, i32 0, i32 1
  %184 = load ptr, ptr %183, align 8
  %185 = load i64, ptr %11, align 8
  %186 = load i64, ptr %18, align 8
  %187 = add i64 %185, %186
  %188 = getelementptr inbounds nuw i8, ptr %184, i64 %187
  %189 = load i8, ptr %188, align 1
  store i8 %189, ptr %19, align 1
  %190 = load i8, ptr %19, align 1
  %191 = sext i8 %190 to i32
  %192 = call i32 @SDL_isprint(i32 noundef %191)
  %193 = icmp ne i32 %192, 0
  br i1 %193, label %195, label %194

194:                                              ; preds = %180
  store i8 46, ptr %19, align 1
  br label %195

195:                                              ; preds = %194, %180
  br label %196

196:                                              ; preds = %195, %171
  %197 = getelementptr inbounds [149 x i8], ptr %13, i64 0, i64 0
  %198 = load i64, ptr %16, align 8
  %199 = getelementptr inbounds nuw i8, ptr %197, i64 %198
  %200 = load i64, ptr %16, align 8
  %201 = sub i64 149, %200
  %202 = load i8, ptr %19, align 1
  %203 = sext i8 %202 to i32
  %204 = call i32 (ptr, i64, ptr, ...) @SDL_snprintf(ptr noundef %199, i64 noundef %201, ptr noundef @.str.23, i32 noundef %203)
  %205 = sext i32 %204 to i64
  %206 = load i64, ptr %16, align 8
  %207 = add i64 %206, %205
  store i64 %207, ptr %16, align 8
  call void @llvm.lifetime.end.p0(i64 1, ptr %19) #5
  br label %208

208:                                              ; preds = %196
  %209 = load i64, ptr %18, align 8
  %210 = add i64 %209, 1
  store i64 %210, ptr %18, align 8
  br label %168, !llvm.loop !9

211:                                              ; preds = %168
  %212 = load i64, ptr %17, align 8
  %213 = icmp ult i64 %212, 1
  br i1 %213, label %214, label %222

214:                                              ; preds = %211
  %215 = getelementptr inbounds [149 x i8], ptr %13, i64 0, i64 0
  %216 = load i64, ptr %16, align 8
  %217 = getelementptr inbounds nuw i8, ptr %215, i64 %216
  %218 = call i32 (ptr, i64, ptr, ...) @SDL_snprintf(ptr noundef %217, i64 noundef 149, ptr noundef @.str.24)
  %219 = sext i32 %218 to i64
  %220 = load i64, ptr %16, align 8
  %221 = add i64 %220, %219
  store i64 %221, ptr %16, align 8
  br label %222

222:                                              ; preds = %214, %211
  call void @llvm.lifetime.end.p0(i64 8, ptr %18) #5
  br label %223

223:                                              ; preds = %222
  %224 = load i64, ptr %17, align 8
  %225 = add i64 %224, 1
  store i64 %225, ptr %17, align 8
  br label %108, !llvm.loop !10

226:                                              ; preds = %108
  %227 = getelementptr inbounds [149 x i8], ptr %13, i64 0, i64 0
  call void (ptr, ...) @SDLTest_LogError(ptr noundef @.str.18, ptr noundef %227)
  br label %228

228:                                              ; preds = %226
  br label %229

229:                                              ; preds = %228
  br label %230

230:                                              ; preds = %229
  call void @llvm.lifetime.end.p0(i64 8, ptr %17) #5
  call void @llvm.lifetime.end.p0(i64 8, ptr %16) #5
  br label %231

231:                                              ; preds = %230
  %232 = load i64, ptr %11, align 8
  %233 = add i64 %232, 16
  store i64 %233, ptr %11, align 8
  br label %93, !llvm.loop !11

234:                                              ; preds = %93
  store i32 1, ptr %5, align 4
  store i32 1, ptr %15, align 4
  br label %235

235:                                              ; preds = %234, %63
  call void @llvm.lifetime.end.p0(i64 149, ptr %13) #5
  call void @llvm.lifetime.end.p0(i64 48, ptr %12) #5
  call void @llvm.lifetime.end.p0(i64 8, ptr %11) #5
  call void @llvm.lifetime.end.p0(i64 8, ptr %10) #5
  %236 = load i32, ptr %5, align 4
  ret i32 %236
}