; Function Attrs: nounwind uwtable
define dso_local range(i32 0, 2) i32 @SDLTest_CompareMemory(ptr noundef %0, i64 noundef %1, ptr noundef %2, i64 noundef %3) local_unnamed_addr #0 {
  %5 = alloca [2 x %struct.anon], align 16
  %6 = alloca [149 x i8], align 16
  %7 = tail call i64 @llvm.umax.i64(i64 %1, i64 %3)
  call void @llvm.lifetime.start.p0(i64 48, ptr nonnull %5) #6
  store ptr @.str.14, ptr %5, align 16
  %8 = getelementptr inbounds nuw i8, ptr %5, i64 8
  store ptr %0, ptr %8, align 8
  %9 = getelementptr inbounds nuw i8, ptr %5, i64 16
  store i64 %1, ptr %9, align 16
  %10 = getelementptr inbounds nuw i8, ptr %5, i64 24
  store ptr @.str.15, ptr %10, align 8
  %11 = getelementptr inbounds nuw i8, ptr %5, i64 32
  store ptr %2, ptr %11, align 16
  %12 = getelementptr inbounds nuw i8, ptr %5, i64 40
  store i64 %3, ptr %12, align 8
  call void @llvm.lifetime.start.p0(i64 149, ptr nonnull %6) #6
  %13 = icmp eq i64 %1, %3
  %14 = zext i1 %13 to i32
  %15 = tail call i32 (i32, ptr, ...) @SDLTest_AssertCheck(i32 noundef %14, ptr noundef nonnull @.str.16, i64 noundef %1, i64 noundef %3) #6
  %.06884.sroa.gep89 = getelementptr inbounds nuw i8, ptr %5, i64 24
  br i1 %13, label %16, label %.critedge

16:                                               ; preds = %4
  %17 = tail call i32 @SDL_memcmp(ptr noundef %0, ptr noundef %2, i64 noundef %7) #6
  %18 = icmp eq i32 %17, 0
  %19 = zext i1 %18 to i32
  %20 = tail call i32 (i32, ptr, ...) @SDLTest_AssertCheck(i32 noundef %19, ptr noundef nonnull @.str.17) #6
  br i1 %18, label %.loopexit, label %.critedge

.critedge:                                        ; preds = %16, %4
  call void @llvm.memset.p0.i64(ptr noundef nonnull align 16 dereferenceable(149) %6, i8 32, i64 149, i1 false)
  %21 = getelementptr inbounds nuw i8, ptr %6, i64 148
  store i8 0, ptr %21, align 4
  %22 = getelementptr inbounds nuw i8, ptr %6, i64 17
  %23 = load ptr, ptr %5, align 16
  %24 = tail call i64 @SDL_strlen(ptr noundef %23) #6
  call void @llvm.memcpy.p0.p0.i64(ptr nonnull align 1 %22, ptr align 1 %23, i64 %24, i1 false)
  %25 = getelementptr inbounds nuw i8, ptr %6, i64 84
  %26 = getelementptr inbounds nuw i8, ptr %5, i64 24
  %27 = load ptr, ptr %26, align 8
  %28 = tail call i64 @SDL_strlen(ptr noundef %27) #6
  call void @llvm.memcpy.p0.p0.i64(ptr nonnull align 4 %25, ptr align 1 %27, i64 %28, i1 false)
  call void (ptr, ...) @SDLTest_LogError(ptr noundef nonnull @.str.18, ptr noundef nonnull %6) #6
  %.not86 = icmp eq i64 %7, 0
  br i1 %.not86, label %.loopexit, label %.lr.ph

.lr.ph:                                           ; preds = %.critedge, %79
  %.17585 = phi i64 [ %80, %79 ], [ 0, %.critedge ]
  %29 = call i32 (ptr, i64, ptr, ...) @SDL_snprintf(ptr noundef nonnull %6, i64 noundef 149, ptr noundef nonnull @.str.19, i64 noundef %.17585) #6
  %30 = sext i32 %29 to i64
  br label %.preheader

.preheader:                                       ; preds = %74, %.lr.ph
  %31 = phi i1 [ true, %.lr.ph ], [ false, %74 ]
  %.06884.sroa.phi = phi ptr [ %5, %.lr.ph ], [ %.06884.sroa.gep89, %74 ]
  %.06983 = phi i64 [ %30, %.lr.ph ], [ %78, %74 ]
  %32 = getelementptr inbounds nuw i8, ptr %.06884.sroa.phi, i64 16
  %33 = load i64, ptr %32, align 8
  %34 = getelementptr inbounds nuw i8, ptr %.06884.sroa.phi, i64 8
  br label %35

35:                                               ; preds = %.preheader, %48
  %.06780 = phi i64 [ 0, %.preheader ], [ %49, %48 ]
  %.17079 = phi i64 [ %.06983, %.preheader ], [ %.2, %48 ]
  %36 = or disjoint i64 %.06780, %.17585
  %37 = icmp ult i64 %36, %33
  %38 = getelementptr inbounds nuw i8, ptr %6, i64 %.17079
  %39 = sub i64 149, %.17079
  br i1 %37, label %40, label %46

40:                                               ; preds = %35
  %41 = load ptr, ptr %34, align 8
  %42 = getelementptr inbounds nuw i8, ptr %41, i64 %36
  %43 = load i8, ptr %42, align 1
  %44 = zext i8 %43 to i32
  %45 = call i32 (ptr, i64, ptr, ...) @SDL_snprintf(ptr noundef nonnull %38, i64 noundef %39, ptr noundef nonnull @.str.20, i32 noundef %44) #6
  br label %48

46:                                               ; preds = %35
  %47 = call i32 (ptr, i64, ptr, ...) @SDL_snprintf(ptr noundef nonnull %38, i64 noundef %39, ptr noundef nonnull @.str.21) #6
  br label %48

48:                                               ; preds = %40, %46
  %.pn.in = phi i32 [ %45, %40 ], [ %47, %46 ]
  %.pn = sext i32 %.pn.in to i64
  %.2 = add i64 %.17079, %.pn
  %49 = add nuw nsw i64 %.06780, 1
  %exitcond.not = icmp eq i64 %49, 16
  br i1 %exitcond.not, label %50, label %35, !llvm.loop !8

50:                                               ; preds = %48
  %51 = getelementptr inbounds nuw i8, ptr %6, i64 %.2
  %52 = sub i64 149, %.2
  %53 = call i32 (ptr, i64, ptr, ...) @SDL_snprintf(ptr noundef nonnull %51, i64 noundef %52, ptr noundef nonnull @.str.22) #6
  %54 = sext i32 %53 to i64
  %55 = add i64 %.2, %54
  br label %56

56:                                               ; preds = %50, %66
  %.182 = phi i64 [ 0, %50 ], [ %72, %66 ]
  %.381 = phi i64 [ %55, %50 ], [ %71, %66 ]
  %57 = or disjoint i64 %.182, %.17585
  %58 = icmp ult i64 %57, %33
  br i1 %58, label %59, label %66

59:                                               ; preds = %56
  %60 = load ptr, ptr %34, align 8
  %61 = getelementptr inbounds nuw i8, ptr %60, i64 %57
  %62 = load i8, ptr %61, align 1
  %63 = sext i8 %62 to i32
  %64 = call i32 @SDL_isprint(i32 noundef %63) #6
  %.not = icmp eq i32 %64, 0
  %65 = select i1 %.not, i32 46, i32 %63
  br label %66

66:                                               ; preds = %59, %56
  %.0 = phi i32 [ 32, %56 ], [ %65, %59 ]
  %67 = getelementptr inbounds nuw i8, ptr %6, i64 %.381
  %68 = sub i64 149, %.381
  %69 = call i32 (ptr, i64, ptr, ...) @SDL_snprintf(ptr noundef nonnull %67, i64 noundef %68, ptr noundef nonnull @.str.23, i32 noundef %.0) #6
  %70 = sext i32 %69 to i64
  %71 = add i64 %.381, %70
  %72 = add nuw nsw i64 %.182, 1
  %exitcond87.not = icmp eq i64 %72, 16
  br i1 %exitcond87.not, label %73, label %56, !llvm.loop !9

73:                                               ; preds = %66
  br i1 %31, label %74, label %79

74:                                               ; preds = %73
  %75 = getelementptr inbounds nuw i8, ptr %6, i64 %71
  %76 = call i32 (ptr, i64, ptr, ...) @SDL_snprintf(ptr noundef nonnull %75, i64 noundef 149, ptr noundef nonnull @.str.24) #6
  %77 = sext i32 %76 to i64
  %78 = add i64 %71, %77
  br label %.preheader, !llvm.loop !10

79:                                               ; preds = %73
  call void (ptr, ...) @SDLTest_LogError(ptr noundef nonnull @.str.18, ptr noundef nonnull %6) #6
  %80 = add i64 %.17585, 16
  %81 = icmp ult i64 %80, %7
  br i1 %81, label %.lr.ph, label %.loopexit, !llvm.loop !11

.loopexit:                                        ; preds = %79, %.critedge, %16
  %.173 = phi i32 [ 0, %16 ], [ 1, %.critedge ], [ 1, %79 ]
  call void @llvm.lifetime.end.p0(i64 149, ptr nonnull %6) #6
  call void @llvm.lifetime.end.p0(i64 48, ptr nonnull %5) #6
  ret i32 %.173
}